; Function Attrs: nounwind uwtable
define internal void @lkcbfunc(i32 noundef %0, ptr noundef %1, i64 noundef %2, ptr noundef %3) #0 {
  %5 = getelementptr inbounds nuw i8, ptr %3, i64 856
  %6 = load ptr, ptr %5, align 8, !tbaa !201
  %.not = icmp eq ptr %6, null
  br i1 %.not, label %8, label %7

7:                                                ; preds = %4
  tail call void @PMIx_Argv_free(ptr noundef nonnull %6) #19
  br label %8

8:                                                ; preds = %7, %4
  %9 = getelementptr inbounds nuw i8, ptr %3, i64 816
  %10 = load ptr, ptr %9, align 8, !tbaa !200
  %.not21 = icmp eq ptr %10, null
  br i1 %.not21, label %14, label %11

11:                                               ; preds = %8
  %12 = getelementptr inbounds nuw i8, ptr %3, i64 824
  %13 = load i64, ptr %12, align 8, !tbaa !199
  tail call void @PMIx_Info_free(ptr noundef nonnull %10, i64 noundef %13) #19
  store ptr null, ptr %9, align 8, !tbaa !200
  br label %14

14:                                               ; preds = %11, %8
  %15 = getelementptr inbounds nuw i8, ptr %3, i64 976
  %16 = load ptr, ptr %15, align 8, !tbaa !204
  %.not22 = icmp eq ptr %16, null
  br i1 %.not22, label %20, label %17

17:                                               ; preds = %14
  %18 = getelementptr inbounds nuw i8, ptr %3, i64 992
  %19 = load ptr, ptr %18, align 8, !tbaa !128
  tail call void %16(i32 noundef %0, ptr noundef %1, i64 noundef %2, ptr noundef %19) #19
  br label %20

20:                                               ; preds = %14, %17
  %21 = tail call i32 @pthread_mutex_lock(ptr noundef nonnull %3) #19
  %22 = icmp eq i32 %21, 35
  br i1 %22, label %23, label %pmix_obj_update.exit

23:                                               ; preds = %20
  %24 = tail call ptr @__errno_location() #22
  store i32 35, ptr %24, align 4, !tbaa !23
  tail call void @perror(ptr noundef nonnull @.str.86) #23
  tail call void @abort() #24
  unreachable

pmix_obj_update.exit:                             ; preds = %20
  %25 = getelementptr inbounds nuw i8, ptr %3, i64 48
  %26 = load i32, ptr %25, align 8, !tbaa !78
  %27 = add nsw i32 %26, -1
  store i32 %27, ptr %25, align 8, !tbaa !78
  %28 = tail call i32 @pthread_mutex_unlock(ptr noundef nonnull %3) #19
  %29 = icmp eq i32 %27, 0
  br i1 %29, label %30, label %44

30:                                               ; preds = %pmix_obj_update.exit
  %31 = getelementptr inbounds nuw i8, ptr %3, i64 40
  %32 = load ptr, ptr %31, align 8, !tbaa !77
  %33 = getelementptr inbounds nuw i8, ptr %32, i64 48
  %34 = load ptr, ptr %33, align 8, !tbaa !88
  %35 = load ptr, ptr %34, align 8, !tbaa !80
  %.not6.i = icmp eq ptr %35, null
  br i1 %.not6.i, label %pmix_obj_run_destructors.exit, label %.lr.ph.i

.lr.ph.i:                                         ; preds = %30, %.lr.ph.i
  %36 = phi ptr [ %38, %.lr.ph.i ], [ %35, %30 ]
  %.07.i = phi ptr [ %37, %.lr.ph.i ], [ %34, %30 ]
  tail call void %36(ptr noundef nonnull %3) #19
  %37 = getelementptr inbounds nuw i8, ptr %.07.i, i64 8
  %38 = load ptr, ptr %37, align 8, !tbaa !80
  %.not.i = icmp eq ptr %38, null
  br i1 %.not.i, label %pmix_obj_run_destructors.exit, label %.lr.ph.i, !llvm.loop !89

pmix_obj_run_destructors.exit:                    ; preds = %.lr.ph.i, %30
  %39 = getelementptr inbounds nuw i8, ptr %3, i64 96
  %40 = load ptr, ptr %39, align 8, !tbaa !90
  %.not23 = icmp eq ptr %40, null
  br i1 %.not23, label %43, label %41

41:                                               ; preds = %pmix_obj_run_destructors.exit
  %42 = getelementptr inbounds nuw i8, ptr %3, i64 56
  tail call void %40(ptr noundef nonnull %42, ptr noundef nonnull %3) #19
  br label %44

43:                                               ; preds = %pmix_obj_run_destructors.exit
  tail call void @free(ptr noundef nonnull %3) #19
  br label %44

44:                                               ; preds = %41, %43, %pmix_obj_update.exit
  ret void
}